---
triple:          'arm64-apple-darwin'
binary-path:     main
relocations:
  - { offset: 0x3F96, size: 0x8, addend: 0x0, symName: __ZNSt3__124__put_character_sequenceB8ne180100IcNS_11char_traitsIcEEEERNS_13basic_ostreamIT_T0_EES7_PKS4_m, symObjAddr: 0x229C, symBinAddr: 0x1000061B4, symSize: 0x1EC }
  - { offset: 0x52F7, size: 0x8, addend: 0x0, symName: __ZNSt3__1lsB8ne180100INS_11char_traitsIcEEEERNS_13basic_ostreamIcT_EES6_PKc, symObjAddr: 0x490, symBinAddr: 0x1000043A8, symSize: 0x48 }
  - { offset: 0x533D, size: 0x8, addend: 0x0, symName: __ZNSt3__1rsB8ne180100IcNS_11char_traitsIcEENS_9allocatorIcEEEERNS_13basic_istreamIT_T0_EES9_RNS_12basic_stringIS6_S7_T1_EE, symObjAddr: 0x4D8, symBinAddr: 0x1000043F0, symSize: 0x30C }
  - { offset: 0x540A, size: 0x8, addend: 0x0, symName: __ZNSt3__1eqB8ne180100IcNS_11char_traitsIcEENS_9allocatorIcEEEEbRKNS_12basic_stringIT_T0_T1_EEPKS6_, symObjAddr: 0x840, symBinAddr: 0x100004758, symSize: 0xAC }
  - { offset: 0x54A4, size: 0x8, addend: 0x0, symName: __ZNSt3__122__make_exception_guardB8ne180100INS_6vectorIcNS_9allocatorIcEEE16__destroy_vectorEEENS_28__exception_guard_exceptionsIT_EES7_, symObjAddr: 0xC54, symBinAddr: 0x100004B6C, symSize: 0x40 }
  - { offset: 0x54D9, size: 0x8, addend: 0x0, symName: __ZNSt3__119__allocate_at_leastB8ne180100INS_9allocatorIcEEEENS_19__allocation_resultINS_16allocator_traitsIT_E7pointerEEERS5_m, symObjAddr: 0x1054, symBinAddr: 0x100004F6C, symSize: 0x40 }
  - { offset: 0x551C, size: 0x8, addend: 0x0, symName: __ZNSt3__13minB8ne180100ImEERKT_S3_S3_, symObjAddr: 0x10F8, symBinAddr: 0x100005010, symSize: 0x2C }
  - { offset: 0x5749, size: 0x8, addend: 0x0, symName: __ZNSt3__13minB8ne180100ImNS_6__lessIvvEEEERKT_S5_S5_T0_, symObjAddr: 0x1184, symBinAddr: 0x10000509C, symSize: 0x54 }
  - { offset: 0x57E8, size: 0x8, addend: 0x0, symName: __ZNSt3__120__throw_length_errorB8ne180100EPKc, symObjAddr: 0x1260, symBinAddr: 0x100005178, symSize: 0x64 }
  - { offset: 0x5810, size: 0x8, addend: 0x0, symName: __ZNSt3__117__libcpp_allocateB8ne180100Emm, symObjAddr: 0x13C8, symBinAddr: 0x1000052E0, symSize: 0x60 }
  - { offset: 0x586A, size: 0x8, addend: 0x0, symName: __ZNSt3__124__is_overaligned_for_newB8ne180100Em, symObjAddr: 0x1428, symBinAddr: 0x100005340, symSize: 0x20 }
  - { offset: 0x5898, size: 0x8, addend: 0x0, symName: __ZNSt3__121__libcpp_operator_newB8ne180100IJmSt11align_val_tEEEPvDpT_, symObjAddr: 0x1448, symBinAddr: 0x100005360, symSize: 0x2C }
  - { offset: 0x58E5, size: 0x8, addend: 0x0, symName: __ZNSt3__121__libcpp_operator_newB8ne180100IJmEEEPvDpT_, symObjAddr: 0x1474, symBinAddr: 0x10000538C, symSize: 0x24 }
  - { offset: 0x591E, size: 0x8, addend: 0x0, symName: __ZNSt3__130__uninitialized_allocator_copyB8ne180100INS_9allocatorIcEEPKcS4_PcEET2_RT_T0_T1_S6_, symObjAddr: 0x1544, symBinAddr: 0x10000545C, symSize: 0x80 }
  - { offset: 0x59BB, size: 0x8, addend: 0x0, symName: __ZNSt3__114__unwrap_rangeB8ne180100IPKcS2_EENS_4pairIT0_S4_EET_S6_, symObjAddr: 0x1634, symBinAddr: 0x10000554C, symSize: 0x60 }
  - { offset: 0x5A07, size: 0x8, addend: 0x0, symName: __ZNSt3__135__uninitialized_allocator_copy_implB8ne180100INS_9allocatorIcEEKcccLPv0EEEPT2_RT_PT0_SA_S6_, symObjAddr: 0x1694, symBinAddr: 0x1000055AC, symSize: 0x38 }
  - { offset: 0x5A88, size: 0x8, addend: 0x0, symName: __ZNSt3__113__unwrap_iterB8ne180100IPcNS_18__unwrap_iter_implIS1_Lb1EEELi0EEEDTclsrT0_8__unwrapclsr3stdE7declvalIT_EEEES5_, symObjAddr: 0x16CC, symBinAddr: 0x1000055E4, symSize: 0x24 }
  - { offset: 0x5ACC, size: 0x8, addend: 0x0, symName: __ZNSt3__113__rewrap_iterB8ne180100IPcS1_NS_18__unwrap_iter_implIS1_Lb1EEEEET_S4_T0_, symObjAddr: 0x16F0, symBinAddr: 0x100005608, symSize: 0x3C }
  - { offset: 0x5B21, size: 0x8, addend: 0x0, symName: __ZNSt3__19make_pairB8ne180100IPKcS2_EENS_4pairINS_18__unwrap_ref_decayIT_E4typeENS4_IT0_E4typeEEEOS5_OS8_, symObjAddr: 0x172C, symBinAddr: 0x100005644, symSize: 0x38 }
  - { offset: 0x5B70, size: 0x8, addend: 0x0, symName: __ZNSt3__113__unwrap_iterB8ne180100IPKcNS_18__unwrap_iter_implIS2_Lb1EEELi0EEEDTclsrT0_8__unwrapclsr3stdE7declvalIT_EEEES6_, symObjAddr: 0x1764, symBinAddr: 0x10000567C, symSize: 0x24 }
  - { offset: 0x5CDB, size: 0x8, addend: 0x0, symName: __ZNSt3__112__to_addressB8ne180100IKcEEPT_S3_, symObjAddr: 0x181C, symBinAddr: 0x100005734, symSize: 0x14 }
  - { offset: 0x5D10, size: 0x8, addend: 0x0, symName: __ZNSt3__14copyB8ne180100IPKcPcEET0_T_S5_S4_, symObjAddr: 0x1830, symBinAddr: 0x100005748, symSize: 0x40 }
  - { offset: 0x5D6A, size: 0x8, addend: 0x0, symName: __ZNSt3__16__copyB8ne180100INS_17_ClassicAlgPolicyEPKcS3_PcEENS_4pairIT0_T2_EES6_T1_S7_, symObjAddr: 0x1870, symBinAddr: 0x100005788, symSize: 0x44 }
  - { offset: 0x5DD6, size: 0x8, addend: 0x0, symName: __ZNSt3__123__dispatch_copy_or_moveB8ne180100INS_17_ClassicAlgPolicyENS_11__copy_loopIS1_EENS_14__copy_trivialEPKcS6_PcEENS_4pairIT2_T4_EES9_T3_SA_, symObjAddr: 0x18B4, symBinAddr: 0x1000057CC, symSize: 0x44 }
  - { offset: 0x5E54, size: 0x8, addend: 0x0, symName: __ZNSt3__121__unwrap_and_dispatchB8ne180100INS_10__overloadINS_11__copy_loopINS_17_ClassicAlgPolicyEEENS_14__copy_trivialEEEPKcS8_PcLi0EEENS_4pairIT0_T2_EESB_T1_SC_, symObjAddr: 0x18F8, symBinAddr: 0x100005810, symSize: 0xB4 }
  - { offset: 0x6067, size: 0x8, addend: 0x0, symName: __ZNSt3__19make_pairB8ne180100IPKcPcEENS_4pairINS_18__unwrap_ref_decayIT_E4typeENS5_IT0_E4typeEEEOS6_OS9_, symObjAddr: 0x19F4, symBinAddr: 0x10000590C, symSize: 0x38 }
  - { offset: 0x60B6, size: 0x8, addend: 0x0, symName: __ZNSt3__114__rewrap_rangeB8ne180100IPKcS2_EET_S3_T0_, symObjAddr: 0x1A2C, symBinAddr: 0x100005944, symSize: 0x2C }
  - { offset: 0x6102, size: 0x8, addend: 0x0, symName: __ZNSt3__119__copy_trivial_implB8ne180100IKccEENS_4pairIPT_PT0_EES4_S4_S6_, symObjAddr: 0x1A58, symBinAddr: 0x100005970, symSize: 0x78 }
  - { offset: 0x616A, size: 0x8, addend: 0x0, symName: __ZNSt3__119__constexpr_memmoveB8ne180100IcKcLi0EEEPT_S3_PT0_NS_15__element_countE, symObjAddr: 0x1AD0, symBinAddr: 0x1000059E8, symSize: 0x64 }
  - { offset: 0x61D8, size: 0x8, addend: 0x0, symName: __ZNSt3__19make_pairB8ne180100IRPKcPcEENS_4pairINS_18__unwrap_ref_decayIT_E4typeENS6_IT0_E4typeEEEOS7_OSA_, symObjAddr: 0x1B34, symBinAddr: 0x100005A4C, symSize: 0x38 }
  - { offset: 0x6227, size: 0x8, addend: 0x0, symName: __ZNSt3__113__rewrap_iterB8ne180100IPKcS2_NS_18__unwrap_iter_implIS2_Lb1EEEEET_S5_T0_, symObjAddr: 0x1C4C, symBinAddr: 0x100005B64, symSize: 0x3C }
  - { offset: 0x62CF, size: 0x8, addend: 0x0, symName: __ZNSt3__112__to_addressB8ne180100IcEEPT_S2_, symObjAddr: 0x1CF4, symBinAddr: 0x100005C0C, symSize: 0x14 }
  - { offset: 0x6304, size: 0x8, addend: 0x0, symName: __ZNSt3__119__libcpp_deallocateB8ne180100EPvmm, symObjAddr: 0x2000, symBinAddr: 0x100005F18, symSize: 0x60 }
  - { offset: 0x6369, size: 0x8, addend: 0x0, symName: __ZNSt3__127__do_deallocate_handle_sizeB8ne180100IJSt11align_val_tEEEvPvmDpT_, symObjAddr: 0x2060, symBinAddr: 0x100005F78, symSize: 0x30 }
  - { offset: 0x63BC, size: 0x8, addend: 0x0, symName: __ZNSt3__127__do_deallocate_handle_sizeB8ne180100IJEEEvPvmDpT_, symObjAddr: 0x2090, symBinAddr: 0x100005FA8, symSize: 0x28 }
  - { offset: 0x63FA, size: 0x8, addend: 0x0, symName: __ZNSt3__124__libcpp_operator_deleteB8ne180100IJPvSt11align_val_tEEEvDpT_, symObjAddr: 0x20B8, symBinAddr: 0x100005FD0, symSize: 0x2C }
  - { offset: 0x6443, size: 0x8, addend: 0x0, symName: __ZNSt3__124__libcpp_operator_deleteB8ne180100IJPvEEEvDpT_, symObjAddr: 0x20E4, symBinAddr: 0x100005FFC, symSize: 0x24 }
  - { offset: 0x6478, size: 0x8, addend: 0x0, symName: __ZNSt3__116__pad_and_outputB8ne180100IcNS_11char_traitsIcEEEENS_19ostreambuf_iteratorIT_T0_EES6_PKS4_S8_S8_RNS_8ios_baseES4_, symObjAddr: 0x24D8, symBinAddr: 0x1000063F0, symSize: 0x240 }
  - { offset: 0x6547, size: 0x8, addend: 0x0, symName: __ZNSt3__19use_facetB8ne180100INS_5ctypeIcEEEERKT_RKNS_6localeE, symObjAddr: 0x2B18, symBinAddr: 0x100006A30, symSize: 0x2C }
  - { offset: 0x6925, size: 0x8, addend: 0x0, symName: __ZNSt3__118__constexpr_strlenB8ne180100EPKc, symObjAddr: 0x2BB0, symBinAddr: 0x100006AC8, symSize: 0x24 }
  - { offset: 0x70DB, size: 0x8, addend: 0x0, symName: __ZNSt3__130__uninitialized_allocator_copyB8ne180100INS_9allocatorIcEEPcS3_S3_EET2_RT_T0_T1_S4_, symObjAddr: 0x34A8, symBinAddr: 0x1000073C0, symSize: 0x80 }
  - { offset: 0x7178, size: 0x8, addend: 0x0, symName: __ZNSt3__114__unwrap_rangeB8ne180100IPcS1_EENS_4pairIT0_S3_EET_S5_, symObjAddr: 0x3528, symBinAddr: 0x100007440, symSize: 0x60 }
  - { offset: 0x71C4, size: 0x8, addend: 0x0, symName: __ZNSt3__135__uninitialized_allocator_copy_implB8ne180100INS_9allocatorIcEEcccLPv0EEEPT2_RT_PT0_S9_S5_, symObjAddr: 0x3588, symBinAddr: 0x1000074A0, symSize: 0x38 }
  - { offset: 0x7245, size: 0x8, addend: 0x0, symName: __ZNSt3__19make_pairB8ne180100IPcS1_EENS_4pairINS_18__unwrap_ref_decayIT_E4typeENS3_IT0_E4typeEEEOS4_OS7_, symObjAddr: 0x35C0, symBinAddr: 0x1000074D8, symSize: 0x38 }
  - { offset: 0x7397, size: 0x8, addend: 0x0, symName: __ZNSt3__14copyB8ne180100IPcS1_EET0_T_S3_S2_, symObjAddr: 0x3668, symBinAddr: 0x100007580, symSize: 0x40 }
  - { offset: 0x73F1, size: 0x8, addend: 0x0, symName: __ZNSt3__16__copyB8ne180100INS_17_ClassicAlgPolicyEPcS2_S2_EENS_4pairIT0_T2_EES4_T1_S5_, symObjAddr: 0x36A8, symBinAddr: 0x1000075C0, symSize: 0x44 }
  - { offset: 0x745D, size: 0x8, addend: 0x0, symName: __ZNSt3__123__dispatch_copy_or_moveB8ne180100INS_17_ClassicAlgPolicyENS_11__copy_loopIS1_EENS_14__copy_trivialEPcS5_S5_EENS_4pairIT2_T4_EES7_T3_S8_, symObjAddr: 0x36EC, symBinAddr: 0x100007604, symSize: 0x44 }
  - { offset: 0x74DB, size: 0x8, addend: 0x0, symName: __ZNSt3__121__unwrap_and_dispatchB8ne180100INS_10__overloadINS_11__copy_loopINS_17_ClassicAlgPolicyEEENS_14__copy_trivialEEEPcS7_S7_Li0EEENS_4pairIT0_T2_EES9_T1_SA_, symObjAddr: 0x3730, symBinAddr: 0x100007648, symSize: 0xB4 }
  - { offset: 0x7569, size: 0x8, addend: 0x0, symName: __ZNSt3__114__rewrap_rangeB8ne180100IPcS1_EET_S2_T0_, symObjAddr: 0x382C, symBinAddr: 0x100007744, symSize: 0x2C }
  - { offset: 0x75B5, size: 0x8, addend: 0x0, symName: __ZNSt3__119__copy_trivial_implB8ne180100IccEENS_4pairIPT_PT0_EES3_S3_S5_, symObjAddr: 0x3858, symBinAddr: 0x100007770, symSize: 0x78 }
  - { offset: 0x761D, size: 0x8, addend: 0x0, symName: __ZNSt3__119__constexpr_memmoveB8ne180100IccLi0EEEPT_S2_PT0_NS_15__element_countE, symObjAddr: 0x38D0, symBinAddr: 0x1000077E8, symSize: 0x64 }
  - { offset: 0x768B, size: 0x8, addend: 0x0, symName: __ZNSt3__19make_pairB8ne180100IRPcS1_EENS_4pairINS_18__unwrap_ref_decayIT_E4typeENS4_IT0_E4typeEEEOS5_OS8_, symObjAddr: 0x3934, symBinAddr: 0x10000784C, symSize: 0x38 }
  - { offset: 0x8502, size: 0x8, addend: 0x0, symName: __ZSt28__throw_bad_array_new_lengthB8ne180100v, symObjAddr: 0x1394, symBinAddr: 0x1000052AC, symSize: 0x34 }
  - { offset: 0x8A3D, size: 0x8, addend: 0x0, symName: __Z5errorNSt3__112basic_stringIcNS_11char_traitsIcEENS_9allocatorIcEEEE, symObjAddr: 0x0, symBinAddr: 0x100003F18, symSize: 0x68 }
  - { offset: 0x8AEF, size: 0x8, addend: 0x0, symName: __ZN8Bullycow11count_bullsENSt3__16vectorIcNS0_9allocatorIcEEEENS0_12basic_stringIcNS0_11char_traitsIcEES3_EE, symObjAddr: 0x68, symBinAddr: 0x100003F80, symSize: 0xD0 }
  - { offset: 0x8B4E, size: 0x8, addend: 0x0, symName: __ZNKSt3__16vectorIcNS_9allocatorIcEEE4sizeB8ne180100Ev, symObjAddr: 0x138, symBinAddr: 0x100004050, symSize: 0x20 }
  - { offset: 0x8B73, size: 0x8, addend: 0x0, symName: __ZNSt3__16vectorIcNS_9allocatorIcEEEixB8ne180100Em, symObjAddr: 0x158, symBinAddr: 0x100004070, symSize: 0x24 }
  - { offset: 0x8BA9, size: 0x8, addend: 0x0, symName: __ZNSt3__112basic_stringIcNS_11char_traitsIcEENS_9allocatorIcEEEixB8ne180100Em, symObjAddr: 0x17C, symBinAddr: 0x100004094, symSize: 0x48 }
  - { offset: 0x8BDD, size: 0x8, addend: 0x0, symName: __ZN8Bullycow14get_bull_countEv, symObjAddr: 0x1C4, symBinAddr: 0x1000040DC, symSize: 0x18 }
  - { offset: 0x8C03, size: 0x8, addend: 0x0, symName: _main, symObjAddr: 0x1DC, symBinAddr: 0x1000040F4, symSize: 0x220 }
  - { offset: 0x8C49, size: 0x8, addend: 0x0, symName: __ZN8BullycowC1Ev, symObjAddr: 0x3FC, symBinAddr: 0x100004314, symSize: 0x2C }
  - { offset: 0x8C74, size: 0x8, addend: 0x0, symName: __ZNSt3__16vectorIcNS_9allocatorIcEEEC1B8ne180100ESt16initializer_listIcE, symObjAddr: 0x428, symBinAddr: 0x100004340, symSize: 0x3C }
  - { offset: 0x8CAE, size: 0x8, addend: 0x0, symName: __ZNSt3__112basic_stringIcNS_11char_traitsIcEENS_9allocatorIcEEEC1B8ne180100Ev, symObjAddr: 0x464, symBinAddr: 0x10000437C, symSize: 0x2C }
  - { offset: 0x8CD7, size: 0x8, addend: 0x0, symName: __ZNKSt3__19basic_iosIcNS_11char_traitsIcEEEntB8ne180100Ev, symObjAddr: 0x7E4, symBinAddr: 0x1000046FC, symSize: 0x28 }
  - { offset: 0x8D01, size: 0x8, addend: 0x0, symName: __ZNSt3__112basic_stringIcNS_11char_traitsIcEENS_9allocatorIcEEEC1B8ne180100ILi0EEEPKc, symObjAddr: 0x80C, symBinAddr: 0x100004724, symSize: 0x34 }
  - { offset: 0x8D3F, size: 0x8, addend: 0x0, symName: __ZNSt3__16vectorIcNS_9allocatorIcEEEC1ERKS3_, symObjAddr: 0x8EC, symBinAddr: 0x100004804, symSize: 0x34 }
  - { offset: 0x8D79, size: 0x8, addend: 0x0, symName: __ZNSt3__16vectorIcNS_9allocatorIcEEED1B8ne180100Ev, symObjAddr: 0x920, symBinAddr: 0x100004838, symSize: 0x2C }
  - { offset: 0x8DA2, size: 0x8, addend: 0x0, symName: __ZN8BullycowC2Ev, symObjAddr: 0x94C, symBinAddr: 0x100004864, symSize: 0x1C }
  - { offset: 0x8DCD, size: 0x8, addend: 0x0, symName: __ZNSt3__112basic_stringIcNS_11char_traitsIcEENS_9allocatorIcEEE13__fits_in_ssoB8ne180100Em, symObjAddr: 0x968, symBinAddr: 0x100004880, symSize: 0x20 }
  - { offset: 0x8DF1, size: 0x8, addend: 0x0, symName: __ZNSt3__112basic_stringIcNS_11char_traitsIcEENS_9allocatorIcEEE18__get_long_pointerB8ne180100Ev, symObjAddr: 0x998, symBinAddr: 0x1000048B0, symSize: 0x28 }
  - { offset: 0x8E16, size: 0x8, addend: 0x0, symName: __ZNSt3__112basic_stringIcNS_11char_traitsIcEENS_9allocatorIcEEE13__get_pointerB8ne180100Ev, symObjAddr: 0x9C0, symBinAddr: 0x1000048D8, symSize: 0x54 }
  - { offset: 0x8E3B, size: 0x8, addend: 0x0, symName: __ZNSt3__117__compressed_pairINS_12basic_stringIcNS_11char_traitsIcEENS_9allocatorIcEEE5__repES5_E5firstB8ne180100Ev, symObjAddr: 0xA14, symBinAddr: 0x10000492C, symSize: 0x24 }
  - { offset: 0x8E5F, size: 0x8, addend: 0x0, symName: __ZNSt3__122__compressed_pair_elemINS_12basic_stringIcNS_11char_traitsIcEENS_9allocatorIcEEE5__repELi0ELb0EE5__getB8ne180100Ev, symObjAddr: 0xA38, symBinAddr: 0x100004950, symSize: 0x14 }
  - { offset: 0x8E84, size: 0x8, addend: 0x0, symName: __ZNKSt3__112basic_stringIcNS_11char_traitsIcEENS_9allocatorIcEEE9__is_longB8ne180100Ev, symObjAddr: 0xA4C, symBinAddr: 0x100004964, symSize: 0x38 }
  - { offset: 0x8EA9, size: 0x8, addend: 0x0, symName: __ZNSt3__112basic_stringIcNS_11char_traitsIcEENS_9allocatorIcEEE19__get_short_pointerB8ne180100Ev, symObjAddr: 0xA84, symBinAddr: 0x10000499C, symSize: 0x28 }
  - { offset: 0x8ECE, size: 0x8, addend: 0x0, symName: __ZNKSt3__117__compressed_pairINS_12basic_stringIcNS_11char_traitsIcEENS_9allocatorIcEEE5__repES5_E5firstB8ne180100Ev, symObjAddr: 0xAAC, symBinAddr: 0x1000049C4, symSize: 0x24 }
  - { offset: 0x8EF2, size: 0x8, addend: 0x0, symName: __ZNKSt3__122__compressed_pair_elemINS_12basic_stringIcNS_11char_traitsIcEENS_9allocatorIcEEE5__repELi0ELb0EE5__getB8ne180100Ev, symObjAddr: 0xAD0, symBinAddr: 0x1000049E8, symSize: 0x14 }
  - { offset: 0x8F17, size: 0x8, addend: 0x0, symName: __ZNSt3__114pointer_traitsIPcE10pointer_toB8ne180100ERc, symObjAddr: 0xAE4, symBinAddr: 0x1000049FC, symSize: 0x14 }
  - { offset: 0x8F3A, size: 0x8, addend: 0x0, symName: __ZNSt3__16vectorIcNS_9allocatorIcEEEC2B8ne180100ESt16initializer_listIcE, symObjAddr: 0xAF8, symBinAddr: 0x100004A10, symSize: 0x120 }
  - { offset: 0x8F93, size: 0x8, addend: 0x0, symName: __ZNSt3__117__compressed_pairIPcNS_9allocatorIcEEEC1B8ne180100IDnNS_18__default_init_tagEEEOT_OT0_, symObjAddr: 0xC18, symBinAddr: 0x100004B30, symSize: 0x3C }
  - { offset: 0x8FEA, size: 0x8, addend: 0x0, symName: __ZNSt3__16vectorIcNS_9allocatorIcEEE16__destroy_vectorC1B8ne180100ERS3_, symObjAddr: 0xC94, symBinAddr: 0x100004BAC, symSize: 0x34 }
  - { offset: 0x9021, size: 0x8, addend: 0x0, symName: __ZNKSt16initializer_listIcE4sizeB8ne180100Ev, symObjAddr: 0xCC8, symBinAddr: 0x100004BE0, symSize: 0x18 }
  - { offset: 0x9046, size: 0x8, addend: 0x0, symName: __ZNSt3__16vectorIcNS_9allocatorIcEEE11__vallocateB8ne180100Em, symObjAddr: 0xCE0, symBinAddr: 0x100004BF8, symSize: 0xAC }
  - { offset: 0x9089, size: 0x8, addend: 0x0, symName: __ZNSt3__16vectorIcNS_9allocatorIcEEE18__construct_at_endIPKcS6_EEvT_T0_m, symObjAddr: 0xD8C, symBinAddr: 0x100004CA4, symSize: 0x8C }
  - { offset: 0x90FD, size: 0x8, addend: 0x0, symName: __ZNKSt16initializer_listIcE5beginB8ne180100Ev, symObjAddr: 0xE18, symBinAddr: 0x100004D30, symSize: 0x18 }
  - { offset: 0x9121, size: 0x8, addend: 0x0, symName: __ZNKSt16initializer_listIcE3endB8ne180100Ev, symObjAddr: 0xE30, symBinAddr: 0x100004D48, symSize: 0x20 }
  - { offset: 0x9145, size: 0x8, addend: 0x0, symName: __ZNSt3__128__exception_guard_exceptionsINS_6vectorIcNS_9allocatorIcEEE16__destroy_vectorEE10__completeB8ne180100Ev, symObjAddr: 0xE50, symBinAddr: 0x100004D68, symSize: 0x1C }
  - { offset: 0x916A, size: 0x8, addend: 0x0, symName: __ZNSt3__128__exception_guard_exceptionsINS_6vectorIcNS_9allocatorIcEEE16__destroy_vectorEED1B8ne180100Ev, symObjAddr: 0xE6C, symBinAddr: 0x100004D84, symSize: 0x2C }
  - { offset: 0x9193, size: 0x8, addend: 0x0, symName: __ZNSt3__117__compressed_pairIPcNS_9allocatorIcEEEC2B8ne180100IDnNS_18__default_init_tagEEEOT_OT0_, symObjAddr: 0xE98, symBinAddr: 0x100004DB0, symSize: 0x40 }
  - { offset: 0x91EA, size: 0x8, addend: 0x0, symName: __ZNSt3__122__compressed_pair_elemIPcLi0ELb0EEC2B8ne180100IDnvEEOT_, symObjAddr: 0xED8, symBinAddr: 0x100004DF0, symSize: 0x1C }
  - { offset: 0x922B, size: 0x8, addend: 0x0, symName: __ZNSt3__122__compressed_pair_elemINS_9allocatorIcEELi1ELb1EEC2B8ne180100ENS_18__default_init_tagE, symObjAddr: 0xEF4, symBinAddr: 0x100004E0C, symSize: 0x2C }
  - { offset: 0x925F, size: 0x8, addend: 0x0, symName: __ZNSt3__19allocatorIcEC2B8ne180100Ev, symObjAddr: 0xF20, symBinAddr: 0x100004E38, symSize: 0x2C }
  - { offset: 0x9288, size: 0x8, addend: 0x0, symName: __ZNSt3__116__non_trivial_ifILb1ENS_9allocatorIcEEEC2B8ne180100Ev, symObjAddr: 0xF4C, symBinAddr: 0x100004E64, symSize: 0x14 }
  - { offset: 0x92B1, size: 0x8, addend: 0x0, symName: __ZNSt3__128__exception_guard_exceptionsINS_6vectorIcNS_9allocatorIcEEE16__destroy_vectorEEC1B8ne180100ES5_, symObjAddr: 0xF60, symBinAddr: 0x100004E78, symSize: 0x34 }
  - { offset: 0x92E8, size: 0x8, addend: 0x0, symName: __ZNSt3__128__exception_guard_exceptionsINS_6vectorIcNS_9allocatorIcEEE16__destroy_vectorEEC2B8ne180100ES5_, symObjAddr: 0xF94, symBinAddr: 0x100004EAC, symSize: 0x24 }
  - { offset: 0x931F, size: 0x8, addend: 0x0, symName: __ZNSt3__16vectorIcNS_9allocatorIcEEE16__destroy_vectorC2B8ne180100ERS3_, symObjAddr: 0xFB8, symBinAddr: 0x100004ED0, symSize: 0x20 }
  - { offset: 0x9357, size: 0x8, addend: 0x0, symName: __ZNKSt3__16vectorIcNS_9allocatorIcEEE8max_sizeEv, symObjAddr: 0xFD8, symBinAddr: 0x100004EF0, symSize: 0x60 }
  - { offset: 0x937E, size: 0x8, addend: 0x0, symName: __ZNKSt3__16vectorIcNS_9allocatorIcEEE20__throw_length_errorB8ne180100Ev, symObjAddr: 0x1038, symBinAddr: 0x100004F50, symSize: 0x1C }
  - { offset: 0x93A3, size: 0x8, addend: 0x0, symName: __ZNSt3__16vectorIcNS_9allocatorIcEEE7__allocB8ne180100Ev, symObjAddr: 0x1094, symBinAddr: 0x100004FAC, symSize: 0x28 }
  - { offset: 0x93C8, size: 0x8, addend: 0x0, symName: __ZNSt3__16vectorIcNS_9allocatorIcEEE9__end_capB8ne180100Ev, symObjAddr: 0x10BC, symBinAddr: 0x100004FD4, symSize: 0x28 }
  - { offset: 0x93EC, size: 0x8, addend: 0x0, symName: __ZNKSt3__16vectorIcNS_9allocatorIcEEE14__annotate_newB8ne180100Em, symObjAddr: 0x10E4, symBinAddr: 0x100004FFC, symSize: 0x14 }
  - { offset: 0x942A, size: 0x8, addend: 0x0, symName: __ZNSt3__116allocator_traitsINS_9allocatorIcEEE8max_sizeB8ne180100IS2_vEEmRKS2_, symObjAddr: 0x1124, symBinAddr: 0x10000503C, symSize: 0x24 }
  - { offset: 0x9458, size: 0x8, addend: 0x0, symName: __ZNKSt3__16vectorIcNS_9allocatorIcEEE7__allocB8ne180100Ev, symObjAddr: 0x1148, symBinAddr: 0x100005060, symSize: 0x28 }
  - { offset: 0x947D, size: 0x8, addend: 0x0, symName: __ZNSt3__114numeric_limitsIlE3maxB8ne180100Ev, symObjAddr: 0x1170, symBinAddr: 0x100005088, symSize: 0x14 }
  - { offset: 0x94A4, size: 0x8, addend: 0x0, symName: __ZNKSt3__16__lessIvvEclB8ne180100ImmEEbRKT_RKT0_, symObjAddr: 0x11D8, symBinAddr: 0x1000050F0, symSize: 0x34 }
  - { offset: 0x94F6, size: 0x8, addend: 0x0, symName: __ZNKSt3__19allocatorIcE8max_sizeB8ne180100Ev, symObjAddr: 0x120C, symBinAddr: 0x100005124, symSize: 0x14 }
  - { offset: 0x951B, size: 0x8, addend: 0x0, symName: __ZNKSt3__117__compressed_pairIPcNS_9allocatorIcEEE6secondB8ne180100Ev, symObjAddr: 0x1220, symBinAddr: 0x100005138, symSize: 0x24 }
  - { offset: 0x953F, size: 0x8, addend: 0x0, symName: __ZNKSt3__122__compressed_pair_elemINS_9allocatorIcEELi1ELb1EE5__getB8ne180100Ev, symObjAddr: 0x1244, symBinAddr: 0x10000515C, symSize: 0x14 }
  - { offset: 0x9564, size: 0x8, addend: 0x0, symName: __ZNSt3__123__libcpp_numeric_limitsIlLb1EE3maxB8ne180100Ev, symObjAddr: 0x1258, symBinAddr: 0x100005170, symSize: 0x8 }
  - { offset: 0x9578, size: 0x8, addend: 0x0, symName: __ZNSt12length_errorC1B8ne180100EPKc, symObjAddr: 0x12C4, symBinAddr: 0x1000051DC, symSize: 0x34 }
  - { offset: 0x95AF, size: 0x8, addend: 0x0, symName: __ZNSt12length_errorC2B8ne180100EPKc, symObjAddr: 0x12F8, symBinAddr: 0x100005210, symSize: 0x44 }
  - { offset: 0x95E6, size: 0x8, addend: 0x0, symName: __ZNSt3__19allocatorIcE8allocateB8ne180100Em, symObjAddr: 0x133C, symBinAddr: 0x100005254, symSize: 0x58 }
  - { offset: 0x9619, size: 0x8, addend: 0x0, symName: __ZNSt3__117__compressed_pairIPcNS_9allocatorIcEEE6secondB8ne180100Ev, symObjAddr: 0x1498, symBinAddr: 0x1000053B0, symSize: 0x24 }
  - { offset: 0x963D, size: 0x8, addend: 0x0, symName: __ZNSt3__122__compressed_pair_elemINS_9allocatorIcEELi1ELb1EE5__getB8ne180100Ev, symObjAddr: 0x14BC, symBinAddr: 0x1000053D4, symSize: 0x14 }
  - { offset: 0x9662, size: 0x8, addend: 0x0, symName: __ZNSt3__117__compressed_pairIPcNS_9allocatorIcEEE5firstB8ne180100Ev, symObjAddr: 0x14D0, symBinAddr: 0x1000053E8, symSize: 0x24 }
  - { offset: 0x9686, size: 0x8, addend: 0x0, symName: __ZNSt3__122__compressed_pair_elemIPcLi0ELb0EE5__getB8ne180100Ev, symObjAddr: 0x14F4, symBinAddr: 0x10000540C, symSize: 0x14 }
  - { offset: 0x96C4, size: 0x8, addend: 0x0, symName: __ZNSt3__16vectorIcNS_9allocatorIcEEE21_ConstructTransactionC1B8ne180100ERS3_m, symObjAddr: 0x1508, symBinAddr: 0x100005420, symSize: 0x3C }
  - { offset: 0x970B, size: 0x8, addend: 0x0, symName: __ZNSt3__16vectorIcNS_9allocatorIcEEE21_ConstructTransactionD1B8ne180100Ev, symObjAddr: 0x15C4, symBinAddr: 0x1000054DC, symSize: 0x2C }
  - { offset: 0x9734, size: 0x8, addend: 0x0, symName: __ZNSt3__16vectorIcNS_9allocatorIcEEE21_ConstructTransactionC2B8ne180100ERS3_m, symObjAddr: 0x15F0, symBinAddr: 0x100005508, symSize: 0x44 }
  - { offset: 0x9799, size: 0x8, addend: 0x0, symName: __ZNSt3__14pairIPKcS2_EC1B8ne180100IS2_S2_Li0EEEOT_OT0_, symObjAddr: 0x1788, symBinAddr: 0x1000056A0, symSize: 0x3C }
  - { offset: 0x97F6, size: 0x8, addend: 0x0, symName: __ZNSt3__14pairIPKcS2_EC2B8ne180100IS2_S2_Li0EEEOT_OT0_, symObjAddr: 0x17C4, symBinAddr: 0x1000056DC, symSize: 0x34 }
  - { offset: 0x9853, size: 0x8, addend: 0x0, symName: __ZNSt3__118__unwrap_iter_implIPKcLb1EE8__unwrapB8ne180100ES2_, symObjAddr: 0x17F8, symBinAddr: 0x100005710, symSize: 0x24 }
  - { offset: 0x9899, size: 0x8, addend: 0x0, symName: __ZNKSt3__114__copy_trivialclB8ne180100IKccLi0EEENS_4pairIPT_PT0_EES5_S5_S7_, symObjAddr: 0x19AC, symBinAddr: 0x1000058C4, symSize: 0x48 }
  - { offset: 0x990A, size: 0x8, addend: 0x0, symName: __ZNSt3__14pairIPKcPcEC1B8ne180100IRS2_S3_Li0EEEOT_OT0_, symObjAddr: 0x1B6C, symBinAddr: 0x100005A84, symSize: 0x3C }
  - { offset: 0x9967, size: 0x8, addend: 0x0, symName: __ZNSt3__14pairIPKcPcEC2B8ne180100IRS2_S3_Li0EEEOT_OT0_, symObjAddr: 0x1BA8, symBinAddr: 0x100005AC0, symSize: 0x34 }
  - { offset: 0x99C4, size: 0x8, addend: 0x0, symName: __ZNSt3__14pairIPKcPcEC1B8ne180100IS2_S3_Li0EEEOT_OT0_, symObjAddr: 0x1BDC, symBinAddr: 0x100005AF4, symSize: 0x3C }
  - { offset: 0x9A21, size: 0x8, addend: 0x0, symName: __ZNSt3__14pairIPKcPcEC2B8ne180100IS2_S3_Li0EEEOT_OT0_, symObjAddr: 0x1C18, symBinAddr: 0x100005B30, symSize: 0x34 }
  - { offset: 0x9A7E, size: 0x8, addend: 0x0, symName: __ZNSt3__118__unwrap_iter_implIPKcLb1EE8__rewrapB8ne180100ES2_S2_, symObjAddr: 0x1C88, symBinAddr: 0x100005BA0, symSize: 0x48 }
  - { offset: 0x9AAF, size: 0x8, addend: 0x0, symName: __ZNSt3__118__unwrap_iter_implIPcLb1EE8__unwrapB8ne180100ES1_, symObjAddr: 0x1CD0, symBinAddr: 0x100005BE8, symSize: 0x24 }
  - { offset: 0x9AD2, size: 0x8, addend: 0x0, symName: __ZNSt3__118__unwrap_iter_implIPcLb1EE8__rewrapB8ne180100ES1_S1_, symObjAddr: 0x1D08, symBinAddr: 0x100005C20, symSize: 0x48 }
  - { offset: 0x9B03, size: 0x8, addend: 0x0, symName: __ZNSt3__16vectorIcNS_9allocatorIcEEE21_ConstructTransactionD2B8ne180100Ev, symObjAddr: 0x1D50, symBinAddr: 0x100005C68, symSize: 0x20 }
  - { offset: 0x9B2C, size: 0x8, addend: 0x0, symName: __ZNSt3__128__exception_guard_exceptionsINS_6vectorIcNS_9allocatorIcEEE16__destroy_vectorEED2B8ne180100Ev, symObjAddr: 0x1D70, symBinAddr: 0x100005C88, symSize: 0x50 }
  - { offset: 0x9B55, size: 0x8, addend: 0x0, symName: __ZNSt3__16vectorIcNS_9allocatorIcEEE16__destroy_vectorclB8ne180100Ev, symObjAddr: 0x1DC0, symBinAddr: 0x100005CD8, symSize: 0x90 }
  - { offset: 0x9B7A, size: 0x8, addend: 0x0, symName: __ZNSt3__16vectorIcNS_9allocatorIcEEE7__clearB8ne180100Ev, symObjAddr: 0x1E50, symBinAddr: 0x100005D68, symSize: 0x28 }
  - { offset: 0x9B9E, size: 0x8, addend: 0x0, symName: __ZNKSt3__16vectorIcNS_9allocatorIcEEE17__annotate_deleteB8ne180100Ev, symObjAddr: 0x1E78, symBinAddr: 0x100005D90, symSize: 0x10 }
  - { offset: 0x9BC3, size: 0x8, addend: 0x0, symName: __ZNSt3__116allocator_traitsINS_9allocatorIcEEE10deallocateB8ne180100ERS2_Pcm, symObjAddr: 0x1E88, symBinAddr: 0x100005DA0, symSize: 0x34 }
  - { offset: 0x9C05, size: 0x8, addend: 0x0, symName: __ZNKSt3__16vectorIcNS_9allocatorIcEEE8capacityB8ne180100Ev, symObjAddr: 0x1EBC, symBinAddr: 0x100005DD4, symSize: 0x38 }
  - { offset: 0x9C2A, size: 0x8, addend: 0x0, symName: __ZNSt3__16vectorIcNS_9allocatorIcEEE22__base_destruct_at_endB8ne180100EPc, symObjAddr: 0x1EF4, symBinAddr: 0x100005E0C, symSize: 0x8C }
  - { offset: 0x9C6D, size: 0x8, addend: 0x0, symName: __ZNSt3__116allocator_traitsINS_9allocatorIcEEE7destroyB8ne180100IcvEEvRS2_PT_, symObjAddr: 0x1F80, symBinAddr: 0x100005E98, symSize: 0x2C }
  - { offset: 0x9CA9, size: 0x8, addend: 0x0, symName: __ZNSt3__19allocatorIcE7destroyB8ne180100EPc, symObjAddr: 0x1FAC, symBinAddr: 0x100005EC4, symSize: 0x14 }
  - { offset: 0x9CDC, size: 0x8, addend: 0x0, symName: __ZNSt3__19allocatorIcE10deallocateB8ne180100EPcm, symObjAddr: 0x1FC0, symBinAddr: 0x100005ED8, symSize: 0x40 }
  - { offset: 0x9D1D, size: 0x8, addend: 0x0, symName: __ZNKSt3__16vectorIcNS_9allocatorIcEEE9__end_capB8ne180100Ev, symObjAddr: 0x2108, symBinAddr: 0x100006020, symSize: 0x28 }
  - { offset: 0x9D42, size: 0x8, addend: 0x0, symName: __ZNKSt3__117__compressed_pairIPcNS_9allocatorIcEEE5firstB8ne180100Ev, symObjAddr: 0x2130, symBinAddr: 0x100006048, symSize: 0x24 }
  - { offset: 0x9D66, size: 0x8, addend: 0x0, symName: __ZNKSt3__122__compressed_pair_elemIPcLi0ELb0EE5__getB8ne180100Ev, symObjAddr: 0x2154, symBinAddr: 0x10000606C, symSize: 0x14 }
  - { offset: 0x9D8B, size: 0x8, addend: 0x0, symName: __ZNSt3__16vectorIcNS_9allocatorIcEEED2B8ne180100Ev, symObjAddr: 0x2168, symBinAddr: 0x100006080, symSize: 0x40 }
  - { offset: 0x9DB4, size: 0x8, addend: 0x0, symName: __ZNSt3__112basic_stringIcNS_11char_traitsIcEENS_9allocatorIcEEEC2B8ne180100Ev, symObjAddr: 0x21A8, symBinAddr: 0x1000060C0, symSize: 0x48 }
  - { offset: 0x9DE2, size: 0x8, addend: 0x0, symName: __ZNSt3__117__compressed_pairINS_12basic_stringIcNS_11char_traitsIcEENS_9allocatorIcEEE5__repES5_EC1B8ne180100INS_16__value_init_tagENS_18__default_init_tagEEEOT_OT0_, symObjAddr: 0x21F0, symBinAddr: 0x100006108, symSize: 0x3C }
  - { offset: 0x9E38, size: 0x8, addend: 0x0, symName: __ZNKSt3__112basic_stringIcNS_11char_traitsIcEENS_9allocatorIcEEE14__annotate_newB8ne180100Em, symObjAddr: 0x222C, symBinAddr: 0x100006144, symSize: 0x14 }
  - { offset: 0x9E6C, size: 0x8, addend: 0x0, symName: __ZNSt3__117__compressed_pairINS_12basic_stringIcNS_11char_traitsIcEENS_9allocatorIcEEE5__repES5_EC2B8ne180100INS_16__value_init_tagENS_18__default_init_tagEEEOT_OT0_, symObjAddr: 0x2240, symBinAddr: 0x100006158, symSize: 0x3C }
  - { offset: 0x9EC3, size: 0x8, addend: 0x0, symName: __ZNSt3__122__compressed_pair_elemINS_12basic_stringIcNS_11char_traitsIcEENS_9allocatorIcEEE5__repELi0ELb0EEC2B8ne180100ENS_16__value_init_tagE, symObjAddr: 0x227C, symBinAddr: 0x100006194, symSize: 0x20 }
  - { offset: 0x9EF7, size: 0x8, addend: 0x0, symName: __ZNSt3__111char_traitsIcE6lengthB8ne180100EPKc, symObjAddr: 0x2488, symBinAddr: 0x1000063A0, symSize: 0x34 }
  - { offset: 0x9F37, size: 0x8, addend: 0x0, symName: __ZNKSt3__113basic_ostreamIcNS_11char_traitsIcEEE6sentrycvbB8ne180100Ev, symObjAddr: 0x24BC, symBinAddr: 0x1000063D4, symSize: 0x1C }
  - { offset: 0x9F5C, size: 0x8, addend: 0x0, symName: __ZNSt3__119ostreambuf_iteratorIcNS_11char_traitsIcEEEC1B8ne180100ERNS_13basic_ostreamIcS2_EE, symObjAddr: 0x2718, symBinAddr: 0x100006630, symSize: 0x34 }
  - { offset: 0x9F93, size: 0x8, addend: 0x0, symName: __ZNKSt3__18ios_base5flagsB8ne180100Ev, symObjAddr: 0x274C, symBinAddr: 0x100006664, symSize: 0x18 }
  - { offset: 0x9FBA, size: 0x8, addend: 0x0, symName: __ZNKSt3__19basic_iosIcNS_11char_traitsIcEEE4fillB8ne180100Ev, symObjAddr: 0x2764, symBinAddr: 0x10000667C, symSize: 0x64 }
  - { offset: 0x9FE0, size: 0x8, addend: 0x0, symName: __ZNKSt3__119ostreambuf_iteratorIcNS_11char_traitsIcEEE6failedB8ne180100Ev, symObjAddr: 0x27C8, symBinAddr: 0x1000066E0, symSize: 0x24 }
  - { offset: 0xA005, size: 0x8, addend: 0x0, symName: __ZNSt3__19basic_iosIcNS_11char_traitsIcEEE8setstateB8ne180100Ej, symObjAddr: 0x27EC, symBinAddr: 0x100006704, symSize: 0x2C }
  - { offset: 0xA039, size: 0x8, addend: 0x0, symName: __ZNKSt3__18ios_base5widthB8ne180100Ev, symObjAddr: 0x2818, symBinAddr: 0x100006730, symSize: 0x18 }
  - { offset: 0xA060, size: 0x8, addend: 0x0, symName: __ZNSt3__115basic_streambufIcNS_11char_traitsIcEEE5sputnB8ne180100EPKcl, symObjAddr: 0x2830, symBinAddr: 0x100006748, symSize: 0x3C }
  - { offset: 0xA0A1, size: 0x8, addend: 0x0, symName: __ZNSt3__112basic_stringIcNS_11char_traitsIcEENS_9allocatorIcEEEC1B8ne180100Emc, symObjAddr: 0x286C, symBinAddr: 0x100006784, symSize: 0x3C }
  - { offset: 0xA0E8, size: 0x8, addend: 0x0, symName: __ZNSt3__112basic_stringIcNS_11char_traitsIcEENS_9allocatorIcEEE4dataB8ne180100Ev, symObjAddr: 0x28A8, symBinAddr: 0x1000067C0, symSize: 0x28 }
  - { offset: 0xA10D, size: 0x8, addend: 0x0, symName: __ZNSt3__18ios_base5widthB8ne180100El, symObjAddr: 0x28D0, symBinAddr: 0x1000067E8, symSize: 0x2C }
  - { offset: 0xA152, size: 0x8, addend: 0x0, symName: __ZNSt3__112basic_stringIcNS_11char_traitsIcEENS_9allocatorIcEEEC2B8ne180100Emc, symObjAddr: 0x28FC, symBinAddr: 0x100006814, symSize: 0x4C }
  - { offset: 0xA199, size: 0x8, addend: 0x0, symName: __ZNSt3__117__compressed_pairINS_12basic_stringIcNS_11char_traitsIcEENS_9allocatorIcEEE5__repES5_EC1B8ne180100INS_18__default_init_tagESA_EEOT_OT0_, symObjAddr: 0x2948, symBinAddr: 0x100006860, symSize: 0x3C }
  - { offset: 0xA1F0, size: 0x8, addend: 0x0, symName: __ZNSt3__117__compressed_pairINS_12basic_stringIcNS_11char_traitsIcEENS_9allocatorIcEEE5__repES5_EC2B8ne180100INS_18__default_init_tagESA_EEOT_OT0_, symObjAddr: 0x2984, symBinAddr: 0x10000689C, symSize: 0x3C }
  - { offset: 0xA247, size: 0x8, addend: 0x0, symName: __ZNSt3__122__compressed_pair_elemINS_12basic_stringIcNS_11char_traitsIcEENS_9allocatorIcEEE5__repELi0ELb0EEC2B8ne180100ENS_18__default_init_tagE, symObjAddr: 0x29C0, symBinAddr: 0x1000068D8, symSize: 0x14 }
  - { offset: 0xA27B, size: 0x8, addend: 0x0, symName: __ZNSt3__119ostreambuf_iteratorIcNS_11char_traitsIcEEEC2B8ne180100ERNS_13basic_ostreamIcS2_EE, symObjAddr: 0x29D4, symBinAddr: 0x1000068EC, symSize: 0x54 }
  - { offset: 0xA2B2, size: 0x8, addend: 0x0, symName: __ZNKSt3__19basic_iosIcNS_11char_traitsIcEEE5rdbufB8ne180100Ev, symObjAddr: 0x2A28, symBinAddr: 0x100006940, symSize: 0x24 }
  - { offset: 0xA2D8, size: 0x8, addend: 0x0, symName: __ZNKSt3__18ios_base5rdbufB8ne180100Ev, symObjAddr: 0x2A4C, symBinAddr: 0x100006964, symSize: 0x18 }
  - { offset: 0xA2FD, size: 0x8, addend: 0x0, symName: __ZNSt3__111char_traitsIcE11eq_int_typeB8ne180100Eii, symObjAddr: 0x2A64, symBinAddr: 0x10000697C, symSize: 0x28 }
  - { offset: 0xA330, size: 0x8, addend: 0x0, symName: __ZNSt3__111char_traitsIcE3eofB8ne180100Ev, symObjAddr: 0x2A8C, symBinAddr: 0x1000069A4, symSize: 0x8 }
  - { offset: 0xA344, size: 0x8, addend: 0x0, symName: __ZNKSt3__19basic_iosIcNS_11char_traitsIcEEE5widenB8ne180100Ec, symObjAddr: 0x2A94, symBinAddr: 0x1000069AC, symSize: 0x84 }
  - { offset: 0xA3A2, size: 0x8, addend: 0x0, symName: __ZNKSt3__15ctypeIcE5widenB8ne180100Ec, symObjAddr: 0x2B44, symBinAddr: 0x100006A5C, symSize: 0x38 }
  - { offset: 0xA3D6, size: 0x8, addend: 0x0, symName: __ZNSt3__18ios_base8setstateB8ne180100Ej, symObjAddr: 0x2B7C, symBinAddr: 0x100006A94, symSize: 0x34 }
  - { offset: 0xA49D, size: 0x8, addend: 0x0, symName: __ZNKSt3__113basic_istreamIcNS_11char_traitsIcEEE6sentrycvbB8ne180100Ev, symObjAddr: 0x2BD4, symBinAddr: 0x100006AEC, symSize: 0x1C }
  - { offset: 0xA4C2, size: 0x8, addend: 0x0, symName: __ZNSt3__112basic_stringIcNS_11char_traitsIcEENS_9allocatorIcEEE5clearB8ne180100Ev, symObjAddr: 0x2BF0, symBinAddr: 0x100006B08, symSize: 0x94 }
  - { offset: 0xA4F8, size: 0x8, addend: 0x0, symName: __ZNKSt3__112basic_stringIcNS_11char_traitsIcEENS_9allocatorIcEEE8max_sizeB8ne180100Ev, symObjAddr: 0x2C84, symBinAddr: 0x100006B9C, symSize: 0xAC }
  - { offset: 0xA549, size: 0x8, addend: 0x0, symName: __ZNSt3__115basic_streambufIcNS_11char_traitsIcEEE5sgetcB8ne180100Ev, symObjAddr: 0x2D30, symBinAddr: 0x100006C48, symSize: 0x70 }
  - { offset: 0xA56E, size: 0x8, addend: 0x0, symName: __ZNSt3__111char_traitsIcE12to_char_typeB8ne180100Ei, symObjAddr: 0x2DA0, symBinAddr: 0x100006CB8, symSize: 0x18 }
  - { offset: 0xA592, size: 0x8, addend: 0x0, symName: __ZNKSt3__15ctypeIcE2isB8ne180100Ejc, symObjAddr: 0x2DB8, symBinAddr: 0x100006CD0, symSize: 0x7C }
  - { offset: 0xA5D5, size: 0x8, addend: 0x0, symName: __ZNSt3__115basic_streambufIcNS_11char_traitsIcEEE6sbumpcB8ne180100Ev, symObjAddr: 0x2E34, symBinAddr: 0x100006D4C, symSize: 0x78 }
  - { offset: 0xA5F9, size: 0x8, addend: 0x0, symName: __ZNSt3__18ios_base18__setstate_nothrowB8ne180100Ej, symObjAddr: 0x2EAC, symBinAddr: 0x100006DC4, symSize: 0x64 }
  - { offset: 0xA62D, size: 0x8, addend: 0x0, symName: __ZNKSt3__19basic_iosIcNS_11char_traitsIcEEE10exceptionsB8ne180100Ev, symObjAddr: 0x2F10, symBinAddr: 0x100006E28, symSize: 0x24 }
  - { offset: 0xA652, size: 0x8, addend: 0x0, symName: __ZNKSt3__112basic_stringIcNS_11char_traitsIcEENS_9allocatorIcEEE4sizeB8ne180100Ev, symObjAddr: 0x2F34, symBinAddr: 0x100006E4C, symSize: 0x54 }
  - { offset: 0xA677, size: 0x8, addend: 0x0, symName: __ZNSt3__111char_traitsIcE6assignB8ne180100ERcRKc, symObjAddr: 0x2F88, symBinAddr: 0x100006EA0, symSize: 0x24 }
  - { offset: 0xA6A8, size: 0x8, addend: 0x0, symName: __ZNSt3__112basic_stringIcNS_11char_traitsIcEENS_9allocatorIcEEE15__set_long_sizeB8ne180100Em, symObjAddr: 0x2FAC, symBinAddr: 0x100006EC4, symSize: 0x38 }
  - { offset: 0xA6DC, size: 0x8, addend: 0x0, symName: __ZNSt3__112basic_stringIcNS_11char_traitsIcEENS_9allocatorIcEEE16__set_short_sizeB8ne180100Em, symObjAddr: 0x2FE4, symBinAddr: 0x100006EFC, symSize: 0x78 }
  - { offset: 0xA70F, size: 0x8, addend: 0x0, symName: __ZNKSt3__112basic_stringIcNS_11char_traitsIcEENS_9allocatorIcEEE17__annotate_shrinkB8ne180100Em, symObjAddr: 0x305C, symBinAddr: 0x100006F74, symSize: 0x14 }
  - { offset: 0xA743, size: 0x8, addend: 0x0, symName: __ZNKSt3__112basic_stringIcNS_11char_traitsIcEENS_9allocatorIcEEE15__get_long_sizeB8ne180100Ev, symObjAddr: 0x3070, symBinAddr: 0x100006F88, symSize: 0x28 }
  - { offset: 0xA768, size: 0x8, addend: 0x0, symName: __ZNKSt3__112basic_stringIcNS_11char_traitsIcEENS_9allocatorIcEEE16__get_short_sizeB8ne180100Ev, symObjAddr: 0x3098, symBinAddr: 0x100006FB0, symSize: 0x34 }
  - { offset: 0xA78D, size: 0x8, addend: 0x0, symName: __ZNKSt3__112basic_stringIcNS_11char_traitsIcEENS_9allocatorIcEEE7__allocB8ne180100Ev, symObjAddr: 0x30CC, symBinAddr: 0x100006FE4, symSize: 0x24 }
  - { offset: 0xA7B2, size: 0x8, addend: 0x0, symName: __ZNSt3__114numeric_limitsImE3maxB8ne180100Ev, symObjAddr: 0x30F0, symBinAddr: 0x100007008, symSize: 0x14 }
  - { offset: 0xA7C6, size: 0x8, addend: 0x0, symName: __ZNKSt3__117__compressed_pairINS_12basic_stringIcNS_11char_traitsIcEENS_9allocatorIcEEE5__repES5_E6secondB8ne180100Ev, symObjAddr: 0x3104, symBinAddr: 0x10000701C, symSize: 0x24 }
  - { offset: 0xA7EB, size: 0x8, addend: 0x0, symName: __ZNSt3__123__libcpp_numeric_limitsImLb1EE3maxB8ne180100Ev, symObjAddr: 0x3128, symBinAddr: 0x100007040, symSize: 0x8 }
  - { offset: 0xA7FF, size: 0x8, addend: 0x0, symName: __ZNSt3__111char_traitsIcE11to_int_typeB8ne180100Ec, symObjAddr: 0x3130, symBinAddr: 0x100007048, symSize: 0x14 }
  - { offset: 0xA822, size: 0x8, addend: 0x0, symName: __Z7isasciii, symObjAddr: 0x3144, symBinAddr: 0x10000705C, symSize: 0x24 }
  - { offset: 0xA84F, size: 0x8, addend: 0x0, symName: __ZNKSt3__18ios_base10exceptionsB8ne180100Ev, symObjAddr: 0x3168, symBinAddr: 0x100007080, symSize: 0x18 }
  - { offset: 0xA876, size: 0x8, addend: 0x0, symName: __ZNKSt3__19basic_iosIcNS_11char_traitsIcEEE4failB8ne180100Ev, symObjAddr: 0x3180, symBinAddr: 0x100007098, symSize: 0x28 }
  - { offset: 0xA89B, size: 0x8, addend: 0x0, symName: __ZNKSt3__18ios_base4failB8ne180100Ev, symObjAddr: 0x31A8, symBinAddr: 0x1000070C0, symSize: 0x28 }
  - { offset: 0xA8C2, size: 0x8, addend: 0x0, symName: __ZNSt3__112basic_stringIcNS_11char_traitsIcEENS_9allocatorIcEEEC2B8ne180100ILi0EEEPKc, symObjAddr: 0x31D0, symBinAddr: 0x1000070E8, symSize: 0x58 }
  - { offset: 0xA900, size: 0x8, addend: 0x0, symName: __ZNSt3__16vectorIcNS_9allocatorIcEEEC2ERKS3_, symObjAddr: 0x3228, symBinAddr: 0x100007140, symSize: 0x94 }
  - { offset: 0xA93A, size: 0x8, addend: 0x0, symName: __ZNSt3__116allocator_traitsINS_9allocatorIcEEE37select_on_container_copy_constructionB8ne180100IS2_vvEES2_RKS2_, symObjAddr: 0x32BC, symBinAddr: 0x1000071D4, symSize: 0x10 }
  - { offset: 0xA96E, size: 0x8, addend: 0x0, symName: __ZNSt3__117__compressed_pairIPcNS_9allocatorIcEEEC1B8ne180100IDnS3_EEOT_OT0_, symObjAddr: 0x32CC, symBinAddr: 0x1000071E4, symSize: 0x3C }
  - { offset: 0xA9C5, size: 0x8, addend: 0x0, symName: __ZNSt3__16vectorIcNS_9allocatorIcEEE16__init_with_sizeB8ne180100IPcS5_EEvT_T0_m, symObjAddr: 0x3308, symBinAddr: 0x100007220, symSize: 0xB8 }
  - { offset: 0xAA38, size: 0x8, addend: 0x0, symName: __ZNSt3__117__compressed_pairIPcNS_9allocatorIcEEEC2B8ne180100IDnS3_EEOT_OT0_, symObjAddr: 0x33C0, symBinAddr: 0x1000072D8, symSize: 0x44 }
  - { offset: 0xAA8F, size: 0x8, addend: 0x0, symName: __ZNSt3__122__compressed_pair_elemINS_9allocatorIcEELi1ELb1EEC2B8ne180100IS2_vEEOT_, symObjAddr: 0x3404, symBinAddr: 0x10000731C, symSize: 0x18 }
  - { offset: 0xAAD0, size: 0x8, addend: 0x0, symName: __ZNSt3__16vectorIcNS_9allocatorIcEEE18__construct_at_endIPcS5_EEvT_T0_m, symObjAddr: 0x341C, symBinAddr: 0x100007334, symSize: 0x8C }
  - { offset: 0xAB5E, size: 0x8, addend: 0x0, symName: __ZNSt3__14pairIPcS1_EC1B8ne180100IS1_S1_Li0EEEOT_OT0_, symObjAddr: 0x35F8, symBinAddr: 0x100007510, symSize: 0x3C }
  - { offset: 0xABBB, size: 0x8, addend: 0x0, symName: __ZNSt3__14pairIPcS1_EC2B8ne180100IS1_S1_Li0EEEOT_OT0_, symObjAddr: 0x3634, symBinAddr: 0x10000754C, symSize: 0x34 }
  - { offset: 0xAC18, size: 0x8, addend: 0x0, symName: __ZNKSt3__114__copy_trivialclB8ne180100IccLi0EEENS_4pairIPT_PT0_EES4_S4_S6_, symObjAddr: 0x37E4, symBinAddr: 0x1000076FC, symSize: 0x48 }
  - { offset: 0xAC7F, size: 0x8, addend: 0x0, symName: __ZNSt3__14pairIPcS1_EC1B8ne180100IRS1_S1_Li0EEEOT_OT0_, symObjAddr: 0x396C, symBinAddr: 0x100007884, symSize: 0x3C }
  - { offset: 0xACDC, size: 0x8, addend: 0x0, symName: __ZNSt3__14pairIPcS1_EC2B8ne180100IRS1_S1_Li0EEEOT_OT0_, symObjAddr: 0x39A8, symBinAddr: 0x1000078C0, symSize: 0x34 }
...
